target datalayout = "e-m:e-p270:32:32-p271:32:32-p272:64:64-i64:64-i128:128-f80:128-n8:16:32:64-S128"
target triple = "x86_64-pc-linux-gnu"

@hf_giop_repoid = internal global i32 0, align 4
@hf_giop_typecode_name = internal global i32 0, align 4

; Function Attrs: null_pointer_is_valid sspstrong uwtable
define internal void @dissect_tk_native_params(ptr noundef %0, ptr noundef %1, ptr noundef %2, i1 noundef zeroext %3, i32 noundef %4) #0 {
  %6 = alloca ptr, align 8
  %7 = alloca ptr, align 8
  %8 = alloca ptr, align 8
  %9 = alloca i8, align 1
  %10 = alloca i32, align 4
  %11 = alloca i32, align 4
  %12 = alloca i8, align 1
  %13 = alloca ptr, align 8
  store ptr %0, ptr %6, align 8
  store ptr %1, ptr %7, align 8
  store ptr %2, ptr %8, align 8
  %14 = zext i1 %3 to i8
  store i8 %14, ptr %9, align 1
  store i32 %4, ptr %10, align 4
  call void @llvm.lifetime.start.p0(i64 4, ptr %11) #14
  call void @llvm.lifetime.start.p0(i64 1, ptr %12) #14
  %15 = load ptr, ptr %6, align 8
  %16 = load ptr, ptr %7, align 8
  %17 = load ptr, ptr %8, align 8
  %18 = load i8, ptr %9, align 1, !range !8, !noundef !9
  %19 = trunc i8 %18 to i1
  %20 = load i32, ptr %10, align 4
  %21 = call i32 @get_CDR_encap_info(ptr noundef %15, ptr noundef %16, ptr noundef %17, i1 noundef zeroext %19, i32 noundef %20, ptr noundef %12, ptr noundef %11)
  call void @llvm.lifetime.start.p0(i64 8, ptr %13) #14
  store ptr null, ptr %13, align 8
  %22 = load ptr, ptr %6, align 8
  %23 = load ptr, ptr %7, align 8
  %24 = load ptr, ptr %8, align 8
  %25 = load i8, ptr %12, align 1, !range !8, !noundef !9
  %26 = trunc i8 %25 to i1
  %27 = load i32, ptr %11, align 4
  %28 = load i32, ptr @hf_giop_repoid, align 4
  call void @dissect_typecode_string_param(ptr noundef %22, ptr noundef %23, ptr noundef %24, i1 noundef zeroext %26, i32 noundef %27, i32 noundef %28, ptr noundef %13)
  %29 = load ptr, ptr %6, align 8
  %30 = load ptr, ptr %7, align 8
  %31 = load ptr, ptr %8, align 8
  %32 = load i8, ptr %12, align 1, !range !8, !noundef !9
  %33 = trunc i8 %32 to i1
  %34 = load i32, ptr %11, align 4
  %35 = load i32, ptr @hf_giop_typecode_name, align 4
  call void @dissect_typecode_string_param(ptr noundef %29, ptr noundef %30, ptr noundef %31, i1 noundef zeroext %33, i32 noundef %34, i32 noundef %35, ptr noundef %13)
  call void @llvm.lifetime.end.p0(i64 8, ptr %13) #14
  call void @llvm.lifetime.end.p0(i64 1, ptr %12) #14
  call void @llvm.lifetime.end.p0(i64 4, ptr %11) #14
  ret void
}