; Function Attrs: null_pointer_is_valid sspstrong uwtable
define internal fastcc void @dissect_tk_native_params(ptr noundef %0, ptr noundef %1, ptr noundef captures(none) %2, i1 noundef zeroext %3, i32 noundef %4) unnamed_addr #0 {
  %6 = alloca i32, align 4
  %7 = alloca i8, align 1
  %8 = alloca ptr, align 8
  call void @llvm.lifetime.start.p0(i64 4, ptr nonnull %6) #17
  call void @llvm.lifetime.start.p0(i64 1, ptr nonnull %7) #17
  %9 = call i32 @get_CDR_encap_info(ptr noundef %0, ptr noundef %1, ptr noundef %2, i1 noundef zeroext %3, i32 noundef %4, ptr noundef nonnull %7, ptr noundef nonnull %6)
  call void @llvm.lifetime.start.p0(i64 8, ptr nonnull %8) #17
  %10 = load i8, ptr %7, align 1, !range !29, !noundef !30
  %11 = trunc nuw i8 %10 to i1
  %12 = load i32, ptr %6, align 4
  %13 = load i32, ptr @hf_giop_repoid, align 4
  call fastcc void @dissect_typecode_string_param(ptr noundef %0, ptr noundef %1, ptr noundef %2, i1 noundef zeroext %11, i32 noundef %12, i32 noundef %13, ptr noundef nonnull %8)
  %14 = load i32, ptr @hf_giop_typecode_name, align 4
  call fastcc void @dissect_typecode_string_param(ptr noundef %0, ptr noundef %1, ptr noundef %2, i1 noundef zeroext %11, i32 noundef %12, i32 noundef %14, ptr noundef nonnull %8)
  call void @llvm.lifetime.end.p0(i64 8, ptr nonnull %8) #17
  call void @llvm.lifetime.end.p0(i64 1, ptr nonnull %7) #17
  call void @llvm.lifetime.end.p0(i64 4, ptr nonnull %6) #17
  ret void
}